; Function Attrs: mustprogress uwtable
define void @_ZN3gmx27AndersenTemperatureCoupling12scheduleTaskEldRKSt8functionIFvS1_IFvvEEEE(ptr noundef nonnull align 8 dereferenceable(88) %0, i64 noundef %1, double %2, ptr noundef nonnull align 8 dereferenceable(32) %3) unnamed_addr #0 align 2 personality ptr @__gxx_personality_v0 {
  %5 = alloca %"class.std::function.2", align 8
  %6 = getelementptr inbounds i8, ptr %0, i64 16
  %7 = load i32, ptr %6, align 8
  %.not.i = icmp eq i32 %7, 0
  br i1 %.not.i, label %_ZNSt8functionIFvvEED2Ev.exit, label %_Z11do_per_stepll.exit

_Z11do_per_stepll.exit:                           ; preds = %4
  %8 = sext i32 %7 to i64
  %9 = srem i64 %1, %8
  %10 = icmp eq i64 %9, 0
  br i1 %10, label %11, label %_ZNSt8functionIFvvEED2Ev.exit

11:                                               ; preds = %_Z11do_per_stepll.exit
  %12 = getelementptr inbounds i8, ptr %5, i64 16
  %13 = getelementptr inbounds i8, ptr %5, i64 24
  store ptr %0, ptr %5, align 8
  %.sroa.2.0..sroa_idx = getelementptr inbounds i8, ptr %5, i64 8
  store i64 %1, ptr %.sroa.2.0..sroa_idx, align 8
  store ptr @"_ZNSt17_Function_handlerIFvvEZN3gmx27AndersenTemperatureCoupling12scheduleTaskEldRKSt8functionIFvS3_IS0_EEEE3$_0E9_M_invokeERKSt9_Any_data", ptr %13, align 8
  store ptr @"_ZNSt17_Function_handlerIFvvEZN3gmx27AndersenTemperatureCoupling12scheduleTaskEldRKSt8functionIFvS3_IS0_EEEE3$_0E10_M_managerERSt9_Any_dataRKSB_St18_Manager_operation", ptr %12, align 8
  %14 = getelementptr inbounds i8, ptr %3, i64 16
  %15 = load ptr, ptr %14, align 8
  %.not.i.i = icmp eq ptr %15, null
  br i1 %.not.i.i, label %16, label %17

16:                                               ; preds = %11
  invoke void @_ZSt25__throw_bad_function_callv() #20
          to label %.noexc unwind label %26

.noexc:                                           ; preds = %16
  unreachable

17:                                               ; preds = %11
  %18 = getelementptr inbounds i8, ptr %3, i64 24
  %19 = load ptr, ptr %18, align 8
  invoke void %19(ptr noundef nonnull align 8 dereferenceable(16) %3, ptr noundef nonnull align 8 dereferenceable(32) %5)
          to label %_ZNKSt8functionIFvS_IFvvEEEEclES1_.exit unwind label %26

_ZNKSt8functionIFvS_IFvvEEEEclES1_.exit:          ; preds = %17
  %20 = load ptr, ptr %12, align 8
  %.not.i.i6 = icmp eq ptr %20, null
  br i1 %.not.i.i6, label %_ZNSt8functionIFvvEED2Ev.exit, label %21

21:                                               ; preds = %_ZNKSt8functionIFvS_IFvvEEEEclES1_.exit
  %22 = invoke noundef zeroext i1 %20(ptr noundef nonnull align 8 dereferenceable(16) %5, ptr noundef nonnull align 8 dereferenceable(16) %5, i32 noundef 3)
          to label %_ZNSt8functionIFvvEED2Ev.exit unwind label %23

23:                                               ; preds = %21
  %24 = landingpad { ptr, i32 }
          catch ptr null
  %25 = extractvalue { ptr, i32 } %24, 0
  call void @__clang_call_terminate(ptr %25) #21
  unreachable

26:                                               ; preds = %17, %16
  %27 = landingpad { ptr, i32 }
          cleanup
  %28 = load ptr, ptr %12, align 8
  %.not.i.i7 = icmp eq ptr %28, null
  br i1 %.not.i.i7, label %_ZNSt8functionIFvvEED2Ev.exit8, label %29

29:                                               ; preds = %26
  %30 = invoke noundef zeroext i1 %28(ptr noundef nonnull align 8 dereferenceable(16) %5, ptr noundef nonnull align 8 dereferenceable(16) %5, i32 noundef 3)
          to label %_ZNSt8functionIFvvEED2Ev.exit8 unwind label %31

31:                                               ; preds = %29
  %32 = landingpad { ptr, i32 }
          catch ptr null
  %33 = extractvalue { ptr, i32 } %32, 0
  call void @__clang_call_terminate(ptr %33) #21
  unreachable

_ZNSt8functionIFvvEED2Ev.exit8:                   ; preds = %26, %29
  resume { ptr, i32 } %27

_ZNSt8functionIFvvEED2Ev.exit:                    ; preds = %4, %21, %_ZNKSt8functionIFvS_IFvvEEEEclES1_.exit, %_Z11do_per_stepll.exit
  ret void
}